target datalayout = "e-m:e-p270:32:32-p271:32:32-p272:64:64-i64:64-i128:128-f80:128-n8:16:32:64-S128"
target triple = "x86_64-pc-linux-gnu"

%struct.AVFilterContext = type { ptr, ptr, ptr, ptr, ptr, i32, ptr, ptr, i32, ptr, ptr, i32, i32, ptr, ptr, ptr, ptr, i32, ptr, i32, i32 }
%struct.TestSourceContext = type { ptr, i32, i32, i32, i32, i32, %struct.AVRational, %struct.AVRational, i64, i64, %struct.AVRational, i32, i32, ptr, ptr, i32, i32, [4 x i8], i32, %struct.FFDrawContext, %struct.FFDrawColor, [4 x i8], [4 x i8], i32, i32, i32, i32, i32, i32, i32, i32, i32, i32, i32, i32, i32, i32, i32, i32, i32, i32, i32, ptr, ptr }
%struct.AVRational = type { i32, i32 }
%struct.FFDrawContext = type { ptr, i32, i32, [4 x i32], [4 x i8], [4 x i8], i8, i8, i32, i32, i32, [3 x [3 x double]] }
%struct.FFDrawColor = type { [4 x i8], [4 x %union.anon.2] }
%union.anon.2 = type { [4 x i32] }
%struct.AVChannelLayout = type { i32, i32, %union.anon.1, ptr }
%union.anon.1 = type { i64 }
%struct.AVFrame = type { [8 x ptr], [8 x i32], ptr, i32, i32, i32, i32, i32, %struct.AVRational, i64, i64, %struct.AVRational, i32, ptr, i32, i32, [8 x ptr], ptr, i32, ptr, i32, i32, i32, i32, i32, i32, i32, i64, ptr, i32, ptr, ptr, i64, i64, i64, i64, ptr, %struct.AVChannelLayout, i64 }

; Function Attrs: nounwind uwtable
define internal void @zoneplate_fill_picture(ptr noundef %0, ptr noundef %1) #1 {
  %3 = alloca ptr, align 8
  %4 = alloca ptr, align 8
  %5 = alloca ptr, align 8
  store ptr %0, ptr %3, align 8, !tbaa !4
  store ptr %1, ptr %4, align 8, !tbaa !55
  call void @llvm.lifetime.start.p0(i64 8, ptr %5) #15
  %6 = load ptr, ptr %3, align 8, !tbaa !4
  %7 = getelementptr inbounds nuw %struct.AVFilterContext, ptr %6, i32 0, i32 9
  %8 = load ptr, ptr %7, align 8, !tbaa !9
  store ptr %8, ptr %5, align 8, !tbaa !22
  %9 = load ptr, ptr %3, align 8, !tbaa !4
  %10 = load ptr, ptr %5, align 8, !tbaa !22
  %11 = getelementptr inbounds nuw %struct.TestSourceContext, ptr %10, i32 0, i32 43
  %12 = load ptr, ptr %11, align 8, !tbaa !174
  %13 = load ptr, ptr %4, align 8, !tbaa !55
  %14 = load ptr, ptr %4, align 8, !tbaa !55
  %15 = getelementptr inbounds nuw %struct.AVFrame, ptr %14, i32 0, i32 4
  %16 = load i32, ptr %15, align 4, !tbaa !88
  %17 = load ptr, ptr %3, align 8, !tbaa !4
  %18 = call i32 @ff_filter_get_nb_threads(ptr noundef %17) #18
  %19 = icmp sgt i32 %16, %18
  br i1 %19, label %20, label %23

20:                                               ; preds = %2
  %21 = load ptr, ptr %3, align 8, !tbaa !4
  %22 = call i32 @ff_filter_get_nb_threads(ptr noundef %21) #18
  br label %27

23:                                               ; preds = %2
  %24 = load ptr, ptr %4, align 8, !tbaa !55
  %25 = getelementptr inbounds nuw %struct.AVFrame, ptr %24, i32 0, i32 4
  %26 = load i32, ptr %25, align 4, !tbaa !88
  br label %27

27:                                               ; preds = %23, %20
  %28 = phi i32 [ %22, %20 ], [ %26, %23 ]
  %29 = call i32 @ff_filter_execute(ptr noundef %9, ptr noundef %12, ptr noundef %13, ptr noundef null, i32 noundef %28)
  call void @llvm.lifetime.end.p0(i64 8, ptr %5) #15
  ret void
}