; Function Attrs: nounwind uwtable
define internal void @zoneplate_fill_picture(ptr noundef %0, ptr noundef %1) #1 {
  %3 = getelementptr inbounds nuw i8, ptr %0, i64 72
  %4 = load ptr, ptr %3, align 8, !tbaa !4
  %5 = getelementptr inbounds nuw i8, ptr %4, i64 400
  %6 = load ptr, ptr %5, align 8, !tbaa !146
  %7 = getelementptr inbounds nuw i8, ptr %1, i64 108
  %8 = load i32, ptr %7, align 4, !tbaa !68
  %9 = tail call i32 @ff_filter_get_nb_threads(ptr noundef %0) #22
  %. = tail call i32 @llvm.smin.i32(i32 %8, i32 %9)
  %10 = tail call i32 @ff_filter_execute(ptr noundef %0, ptr noundef %6, ptr noundef %1, ptr noundef null, i32 noundef %.) #20
  ret void
}